	.file	"Programa.cpp"
	.section .rdata,"dr"
_ZStL19piecewise_construct:
	.space 1
.lcomm _ZStL8__ioinit,1,1
	.def	__main;	.scl	2;	.type	32;	.endef
.LC0:
	.ascii "ESCRIBA_LA_VOCAL_\0"
.LC1:
	.ascii "Se_ha_pulsado_una_a\0"
.LC2:
	.ascii "Se_ha_pulsado_una_e\0"
.LC3:
	.ascii "Se_ha_pulsado_una_i\0"
.LC4:
	.ascii "Sehapulsadouna_o\0"
.LC5:
	.ascii "Se_ha_pulsado_una_u\0"
.LC6:
	.ascii "Error\0"
.LC7:
	.ascii "pause\0"
	.text
	.globl	main
	.def	main;	.scl	2;	.type	32;	.endef
	.seh_proc	main
main:
.LFB1533:
	pushq	%rbp
	.seh_pushreg	%rbp
	movq	%rsp, %rbp
	.seh_setframe	%rbp, 0
	subq	$48, %rsp
	.seh_stackalloc	48
	.seh_endprologue
	call	__main
	leaq	.LC0(%rip), %rcx
	call	printf
	leaq	-1(%rbp), %rax
	movq	%rax, %rdx
	movq	.refptr._ZSt3cin(%rip), %rcx
	call	_ZStrsIcSt11char_traitsIcEERSt13basic_istreamIT_T0_ES6_RS3_
	movzbl	-1(%rbp), %eax
	movsbl	%al, %eax
	subl	$97, %eax
	cmpl	$20, %eax
	ja	.L2
	movl	%eax, %eax
	leaq	0(,%rax,4), %rdx
	leaq	.L4(%rip), %rax
	movl	(%rdx,%rax), %eax
	movslq	%eax, %rdx
	leaq	.L4(%rip), %rax
	addq	%rdx, %rax
	jmp	*%rax
	.section .rdata,"dr"
	.align 4
.L4:
	.long	.L3-.L4
	.long	.L2-.L4
	.long	.L2-.L4
	.long	.L2-.L4
	.long	.L5-.L4
	.long	.L2-.L4
	.long	.L2-.L4
	.long	.L2-.L4
	.long	.L6-.L4
	.long	.L2-.L4
	.long	.L2-.L4
	.long	.L2-.L4
	.long	.L2-.L4
	.long	.L2-.L4
	.long	.L7-.L4
	.long	.L2-.L4
	.long	.L2-.L4
	.long	.L2-.L4
	.long	.L2-.L4
	.long	.L2-.L4
	.long	.L8-.L4
	.text
.L3:
	leaq	.LC1(%rip), %rcx
	call	printf
	jmp	.L9
.L5:
	leaq	.LC2(%rip), %rcx
	call	printf
	jmp	.L9
.L6:
	leaq	.LC3(%rip), %rcx
	call	printf
	jmp	.L9
.L7:
	leaq	.LC4(%rip), %rcx
	call	printf
	jmp	.L9
.L8:
	leaq	.LC5(%rip), %rcx
	call	printf
	jmp	.L9
.L2:
	leaq	.LC6(%rip), %rcx
	call	printf
.L9:
	leaq	.LC7(%rip), %rcx
	call	system
	movl	$0, %eax
	addq	$48, %rsp
	popq	%rbp
	ret
	.seh_endproc
	.def	__tcf_0;	.scl	3;	.type	32;	.endef
	.seh_proc	__tcf_0
__tcf_0:
.LFB2015:
	pushq	%rbp
	.seh_pushreg	%rbp
	movq	%rsp, %rbp
	.seh_setframe	%rbp, 0
	subq	$32, %rsp
	.seh_stackalloc	32
	.seh_endprologue
	leaq	_ZStL8__ioinit(%rip), %rcx
	call	_ZNSt8ios_base4InitD1Ev
	nop
	addq	$32, %rsp
	popq	%rbp
	ret
	.seh_endproc
	.def	_Z41__static_initialization_and_destruction_0ii;	.scl	3;	.type	32;	.endef
	.seh_proc	_Z41__static_initialization_and_destruction_0ii
_Z41__static_initialization_and_destruction_0ii:
.LFB2014:
	pushq	%rbp
	.seh_pushreg	%rbp
	movq	%rsp, %rbp
	.seh_setframe	%rbp, 0
	subq	$32, %rsp
	.seh_stackalloc	32
	.seh_endprologue
	movl	%ecx, 16(%rbp)
	movl	%edx, 24(%rbp)
	cmpl	$1, 16(%rbp)
	jne	.L14
	cmpl	$65535, 24(%rbp)
	jne	.L14
	leaq	_ZStL8__ioinit(%rip), %rcx
	call	_ZNSt8ios_base4InitC1Ev
	leaq	__tcf_0(%rip), %rcx
	call	atexit
.L14:
	nop
	addq	$32, %rsp
	popq	%rbp
	ret
	.seh_endproc
	.def	_GLOBAL__sub_I_main;	.scl	3;	.type	32;	.endef
	.seh_proc	_GLOBAL__sub_I_main
_GLOBAL__sub_I_main:
.LFB2016:
	pushq	%rbp
	.seh_pushreg	%rbp
	movq	%rsp, %rbp
	.seh_setframe	%rbp, 0
	subq	$32, %rsp
	.seh_stackalloc	32
	.seh_endprologue
	movl	$65535, %edx
	movl	$1, %ecx
	call	_Z41__static_initialization_and_destruction_0ii
	nop
	addq	$32, %rsp
	popq	%rbp
	ret
	.seh_endproc
	.section	.ctors,"w"
	.align 8
	.quad	_GLOBAL__sub_I_main
	.ident	"GCC: (Rev1, Built by MSYS2 project) 7.2.0"
	.def	printf;	.scl	2;	.type	32;	.endef
	.def	_ZStrsIcSt11char_traitsIcEERSt13basic_istreamIT_T0_ES6_RS3_;	.scl	2;	.type	32;	.endef
	.def	system;	.scl	2;	.type	32;	.endef
	.def	_ZNSt8ios_base4InitD1Ev;	.scl	2;	.type	32;	.endef
	.def	_ZNSt8ios_base4InitC1Ev;	.scl	2;	.type	32;	.endef
	.def	atexit;	.scl	2;	.type	32;	.endef
	.section	.rdata$.refptr._ZSt3cin, "dr"
	.globl	.refptr._ZSt3cin
	.linkonce	discard
.refptr._ZSt3cin:
	.quad	_ZSt3cin
